target datalayout = "e-m:e-p270:32:32-p271:32:32-p272:64:64-i64:64-i128:128-f80:128-n8:16:32:64-S128"
target triple = "x86_64-pc-linux-gnu"

; Function Attrs: mustprogress nounwind uwtable
define dso_local i32 @meshopt_decodeVertexVersion(ptr noundef %0, i64 noundef %1) #1 {
  %3 = alloca i32, align 4
  %4 = alloca ptr, align 8
  %5 = alloca i64, align 8
  %6 = alloca i8, align 1
  %7 = alloca i32, align 4
  %8 = alloca i32, align 4
  store ptr %0, ptr %4, align 8, !tbaa !15
  store i64 %1, ptr %5, align 8, !tbaa !18
  %9 = load i64, ptr %5, align 8, !tbaa !18
  %10 = icmp ult i64 %9, 1
  br i1 %10, label %11, label %12

11:                                               ; preds = %2
  store i32 -1, ptr %3, align 4
  br label %32

12:                                               ; preds = %2
  call void @llvm.lifetime.start.p0(i64 1, ptr %6) #14
  %13 = load ptr, ptr %4, align 8, !tbaa !15
  %14 = getelementptr inbounds i8, ptr %13, i64 0
  %15 = load i8, ptr %14, align 1, !tbaa !10
  store i8 %15, ptr %6, align 1, !tbaa !10
  %16 = load i8, ptr %6, align 1, !tbaa !10
  %17 = zext i8 %16 to i32
  %18 = and i32 %17, 240
  %19 = icmp ne i32 %18, 160
  br i1 %19, label %20, label %21

20:                                               ; preds = %12
  store i32 -1, ptr %3, align 4
  store i32 1, ptr %7, align 4
  br label %31

21:                                               ; preds = %12
  call void @llvm.lifetime.start.p0(i64 4, ptr %8) #14
  %22 = load i8, ptr %6, align 1, !tbaa !10
  %23 = zext i8 %22 to i32
  %24 = and i32 %23, 15
  store i32 %24, ptr %8, align 4, !tbaa !8
  %25 = load i32, ptr %8, align 4, !tbaa !8
  %26 = icmp sgt i32 %25, 1
  br i1 %26, label %27, label %28

27:                                               ; preds = %21
  store i32 -1, ptr %3, align 4
  store i32 1, ptr %7, align 4
  br label %30

28:                                               ; preds = %21
  %29 = load i32, ptr %8, align 4, !tbaa !8
  store i32 %29, ptr %3, align 4
  store i32 1, ptr %7, align 4
  br label %30

30:                                               ; preds = %28, %27
  call void @llvm.lifetime.end.p0(i64 4, ptr %8) #14
  br label %31

31:                                               ; preds = %30, %20
  call void @llvm.lifetime.end.p0(i64 1, ptr %6) #14
  br label %32

32:                                               ; preds = %31, %11
  %33 = load i32, ptr %3, align 4
  ret i32 %33
}